target datalayout = "e-m:e-p270:32:32-p271:32:32-p272:64:64-i64:64-i128:128-f80:128-n8:16:32:64-S128"
target triple = "x86_64-pc-linux-gnu"

%struct.release_t = type { ptr, ptr, i64 }

@.str.11 = private unnamed_addr constant [26 x i8] c"OpenBLAS : munmap failed:\00", align 1
@.str.12 = private unnamed_addr constant [36 x i8] c"error code=%d,\09release->address=%p\0A\00", align 1

; Function Attrs: nounwind uwtable
define internal void @alloc_mmap_free(ptr noundef %0) #0 {
  %2 = alloca ptr, align 8
  %3 = alloca i32, align 4
  store ptr %0, ptr %2, align 8, !tbaa !27
  %4 = load ptr, ptr %2, align 8, !tbaa !27
  %5 = getelementptr inbounds nuw %struct.release_t, ptr %4, i32 0, i32 0
  %6 = load ptr, ptr %5, align 8, !tbaa !34
  %7 = icmp ne ptr %6, null
  br i1 %7, label %9, label %8

8:                                                ; preds = %1
  br label %23

9:                                                ; preds = %1
  %10 = load ptr, ptr %2, align 8, !tbaa !27
  %11 = getelementptr inbounds nuw %struct.release_t, ptr %10, i32 0, i32 0
  %12 = load ptr, ptr %11, align 8, !tbaa !34
  %13 = call i32 @munmap(ptr noundef %12, i64 noundef 134217728) #9
  %14 = icmp ne i32 %13, 0
  br i1 %14, label %15, label %23

15:                                               ; preds = %9
  call void @llvm.lifetime.start.p0(i64 4, ptr %3) #9
  %16 = call ptr @__errno_location() #11
  %17 = load i32, ptr %16, align 4, !tbaa !3
  store i32 %17, ptr %3, align 4, !tbaa !3
  call void @perror(ptr noundef @.str.11)
  %18 = load i32, ptr %3, align 4, !tbaa !3
  %19 = load ptr, ptr %2, align 8, !tbaa !27
  %20 = getelementptr inbounds nuw %struct.release_t, ptr %19, i32 0, i32 0
  %21 = load ptr, ptr %20, align 8, !tbaa !34
  %22 = call i32 (ptr, ...) @printf(ptr noundef @.str.12, i32 noundef %18, ptr noundef %21)
  call void @llvm.lifetime.end.p0(i64 4, ptr %3) #9
  br label %23

23:                                               ; preds = %8, %15, %9
  ret void
}