; Function Attrs: nounwind uwtable
define internal void @alloc_mmap_free(ptr noundef readonly captures(none) %0) #0 {
  %2 = load ptr, ptr %0, align 8, !tbaa !32
  %.not = icmp eq ptr %2, null
  br i1 %.not, label %10, label %3

3:                                                ; preds = %1
  %4 = tail call i32 @munmap(ptr noundef nonnull %2, i64 noundef 134217728) #15
  %.not3 = icmp eq i32 %4, 0
  br i1 %.not3, label %10, label %5

5:                                                ; preds = %3
  %6 = tail call ptr @__errno_location() #19
  %7 = load i32, ptr %6, align 4, !tbaa !3
  tail call void @perror(ptr noundef nonnull @.str.11) #16
  %8 = load ptr, ptr %0, align 8, !tbaa !32
  %9 = tail call i32 (ptr, ...) @printf(ptr noundef nonnull dereferenceable(1) @.str.12, i32 noundef %7, ptr noundef %8)
  br label %10

10:                                               ; preds = %1, %5, %3
  ret void
}